; ModuleID = '56/728.c'
source_filename = "56/728.c"
target datalayout = "e-m:e-p270:32:32-p271:32:32-p272:64:64-i64:64-f80:128-n8:16:32:64-S128"
target triple = "x86_64-pc-linux-gnu"

@.str = private unnamed_addr constant [3 x i8] c"%d\00", align 1

; Function Attrs: noinline nounwind uwtable
define dso_local void @main() #0 {
  %1 = alloca i32, align 4
  %2 = alloca i32, align 4
  %3 = alloca i32, align 4
  %4 = alloca i32, align 4
  %5 = alloca i32, align 4
  %6 = alloca i32, align 4
  %7 = alloca i32, align 4
  %8 = call i32 (i8*, ...) @__isoc99_scanf(i8* getelementptr inbounds ([3 x i8], [3 x i8]* @.str, i64 0, i64 0), i32* %1)
  %9 = load i32, i32* %1, align 4
  %10 = srem i32 %9, 10
  store i32 %10, i32* %2, align 4
  %11 = load i32, i32* %1, align 4
  %12 = load i32, i32* %2, align 4
  %13 = sub nsw i32 %11, %12
  %14 = sdiv i32 %13, 10
  store i32 %14, i32* %3, align 4
  %15 = load i32, i32* %3, align 4
  %16 = srem i32 %15, 10
  store i32 %16, i32* %3, align 4
  %17 = load i32, i32* %1, align 4
  %18 = load i32, i32* %3, align 4
  %19 = mul nsw i32 %18, 10
  %20 = sub nsw i32 %17, %19
  %21 = load i32, i32* %2, align 4
  %22 = sub nsw i32 %20, %21
  %23 = sdiv i32 %22, 100
  store i32 %23, i32* %4, align 4
  %24 = load i32, i32* %4, align 4
  %25 = srem i32 %24, 10
  store i32 %25, i32* %4, align 4
  %26 = load i32, i32* %1, align 4
  %27 = load i32, i32* %4, align 4
  %28 = mul nsw i32 %27, 100
  %29 = sub nsw i32 %26, %28
  %30 = load i32, i32* %3, align 4
  %31 = mul nsw i32 %30, 10
  %32 = sub nsw i32 %29, %31
  %33 = load i32, i32* %2, align 4
  %34 = sub nsw i32 %32, %33
  %35 = sdiv i32 %34, 1000
  store i32 %35, i32* %5, align 4
  %36 = load i32, i32* %5, align 4
  %37 = srem i32 %36, 10
  store i32 %37, i32* %5, align 4
  %38 = load i32, i32* %1, align 4
  %39 = load i32, i32* %5, align 4
  %40 = mul nsw i32 %39, 1000
  %41 = sub nsw i32 %38, %40
  %42 = load i32, i32* %4, align 4
  %43 = mul nsw i32 %42, 100
  %44 = sub nsw i32 %41, %43
  %45 = load i32, i32* %3, align 4
  %46 = mul nsw i32 %45, 10
  %47 = sub nsw i32 %44, %46
  %48 = load i32, i32* %2, align 4
  %49 = sub nsw i32 %47, %48
  %50 = sdiv i32 %49, 10000
  store i32 %50, i32* %6, align 4
  %51 = load i32, i32* %6, align 4
  %52 = srem i32 %51, 10
  store i32 %52, i32* %6, align 4
  %53 = load i32, i32* %3, align 4
  %54 = icmp eq i32 %53, 0
  br i1 %54, label %55, label %68

55:                                               ; preds = %0
  %56 = load i32, i32* %4, align 4
  %57 = icmp eq i32 %56, 0
  br i1 %57, label %58, label %68

58:                                               ; preds = %55
  %59 = load i32, i32* %5, align 4
  %60 = icmp eq i32 %59, 0
  br i1 %60, label %61, label %68

61:                                               ; preds = %58
  %62 = load i32, i32* %6, align 4
  %63 = icmp eq i32 %62, 0
  br i1 %63, label %64, label %68

64:                                               ; preds = %61
  %65 = load i32, i32* %2, align 4
  store i32 %65, i32* %7, align 4
  %66 = load i32, i32* %7, align 4
  %67 = call i32 (i8*, ...) @printf(i8* getelementptr inbounds ([3 x i8], [3 x i8]* @.str, i64 0, i64 0), i32 %66)
  br label %68

68:                                               ; preds = %64, %61, %58, %55, %0
  %69 = load i32, i32* %3, align 4
  %70 = icmp ne i32 %69, 0
  br i1 %70, label %71, label %87

71:                                               ; preds = %68
  %72 = load i32, i32* %4, align 4
  %73 = icmp eq i32 %72, 0
  br i1 %73, label %74, label %87

74:                                               ; preds = %71
  %75 = load i32, i32* %5, align 4
  %76 = icmp eq i32 %75, 0
  br i1 %76, label %77, label %87

77:                                               ; preds = %74
  %78 = load i32, i32* %6, align 4
  %79 = icmp eq i32 %78, 0
  br i1 %79, label %80, label %87

80:                                               ; preds = %77
  %81 = load i32, i32* %2, align 4
  %82 = mul nsw i32 %81, 10
  %83 = load i32, i32* %3, align 4
  %84 = add nsw i32 %82, %83
  store i32 %84, i32* %7, align 4
  %85 = load i32, i32* %7, align 4
  %86 = call i32 (i8*, ...) @printf(i8* getelementptr inbounds ([3 x i8], [3 x i8]* @.str, i64 0, i64 0), i32 %85)
  br label %87

87:                                               ; preds = %80, %77, %74, %71, %68
  %88 = load i32, i32* %3, align 4
  %89 = icmp ne i32 %88, 0
  br i1 %89, label %90, label %109

90:                                               ; preds = %87
  %91 = load i32, i32* %4, align 4
  %92 = icmp ne i32 %91, 0
  br i1 %92, label %93, label %109

93:                                               ; preds = %90
  %94 = load i32, i32* %5, align 4
  %95 = icmp eq i32 %94, 0
  br i1 %95, label %96, label %109

96:                                               ; preds = %93
  %97 = load i32, i32* %6, align 4
  %98 = icmp eq i32 %97, 0
  br i1 %98, label %99, label %109

99:                                               ; preds = %96
  %100 = load i32, i32* %2, align 4
  %101 = mul nsw i32 %100, 100
  %102 = load i32, i32* %3, align 4
  %103 = mul nsw i32 %102, 10
  %104 = add nsw i32 %101, %103
  %105 = load i32, i32* %4, align 4
  %106 = add nsw i32 %104, %105
  store i32 %106, i32* %7, align 4
  %107 = load i32, i32* %7, align 4
  %108 = call i32 (i8*, ...) @printf(i8* getelementptr inbounds ([3 x i8], [3 x i8]* @.str, i64 0, i64 0), i32 %107)
  br label %109

109:                                              ; preds = %99, %96, %93, %90, %87
  %110 = load i32, i32* %3, align 4
  %111 = icmp ne i32 %110, 0
  br i1 %111, label %112, label %134

112:                                              ; preds = %109
  %113 = load i32, i32* %4, align 4
  %114 = icmp ne i32 %113, 0
  br i1 %114, label %115, label %134

115:                                              ; preds = %112
  %116 = load i32, i32* %5, align 4
  %117 = icmp ne i32 %116, 0
  br i1 %117, label %118, label %134

118:                                              ; preds = %115
  %119 = load i32, i32* %6, align 4
  %120 = icmp eq i32 %119, 0
  br i1 %120, label %121, label %134

121:                                              ; preds = %118
  %122 = load i32, i32* %2, align 4
  %123 = mul nsw i32 %122, 1000
  %124 = load i32, i32* %3, align 4
  %125 = mul nsw i32 %124, 100
  %126 = add nsw i32 %123, %125
  %127 = load i32, i32* %4, align 4
  %128 = mul nsw i32 %127, 10
  %129 = add nsw i32 %126, %128
  %130 = load i32, i32* %5, align 4
  %131 = add nsw i32 %129, %130
  store i32 %131, i32* %7, align 4
  %132 = load i32, i32* %7, align 4
  %133 = call i32 (i8*, ...) @printf(i8* getelementptr inbounds ([3 x i8], [3 x i8]* @.str, i64 0, i64 0), i32 %132)
  br label %134

134:                                              ; preds = %121, %118, %115, %112, %109
  %135 = load i32, i32* %3, align 4
  %136 = icmp ne i32 %135, 0
  br i1 %136, label %137, label %162

137:                                              ; preds = %134
  %138 = load i32, i32* %4, align 4
  %139 = icmp ne i32 %138, 0
  br i1 %139, label %140, label %162

140:                                              ; preds = %137
  %141 = load i32, i32* %5, align 4
  %142 = icmp ne i32 %141, 0
  br i1 %142, label %143, label %162

143:                                              ; preds = %140
  %144 = load i32, i32* %6, align 4
  %145 = icmp ne i32 %144, 0
  br i1 %145, label %146, label %162

146:                                              ; preds = %143
  %147 = load i32, i32* %2, align 4
  %148 = mul nsw i32 %147, 10000
  %149 = load i32, i32* %3, align 4
  %150 = mul nsw i32 %149, 1000
  %151 = add nsw i32 %148, %150
  %152 = load i32, i32* %4, align 4
  %153 = mul nsw i32 %152, 100
  %154 = add nsw i32 %151, %153
  %155 = load i32, i32* %5, align 4
  %156 = mul nsw i32 %155, 10
  %157 = add nsw i32 %154, %156
  %158 = load i32, i32* %6, align 4
  %159 = add nsw i32 %157, %158
  store i32 %159, i32* %7, align 4
  %160 = load i32, i32* %7, align 4
  %161 = call i32 (i8*, ...) @printf(i8* getelementptr inbounds ([3 x i8], [3 x i8]* @.str, i64 0, i64 0), i32 %160)
  br label %162

162:                                              ; preds = %146, %143, %140, %137, %134
  ret void
}

declare dso_local i32 @__isoc99_scanf(i8*, ...) #1

declare dso_local i32 @printf(i8*, ...) #1


!llvm.module.flags = !{!0}
!llvm.ident = !{!1}

!0 = !{i32 1, !"wchar_size", i32 4}
!1 = !{!"clang version 10.0.0-4ubuntu1 "}
